target datalayout = "e-m:e-p270:32:32-p271:32:32-p272:64:64-i64:64-i128:128-f80:128-n8:16:32:64-S128"
target triple = "x86_64-pc-linux-gnu"

; Function Attrs: mustprogress nounwind uwtable
define void @_ZN5faiss11fvec2bitvecEPKfPhm(ptr noalias noundef %0, ptr noalias noundef %1, i64 noundef %2) #5 {
  %4 = alloca ptr, align 8
  %5 = alloca ptr, align 8
  %6 = alloca i64, align 8
  %7 = alloca i32, align 4
  %8 = alloca i32, align 4
  %9 = alloca i8, align 1
  %10 = alloca i8, align 1
  %11 = alloca i32, align 4
  %12 = alloca i32, align 4
  store ptr %0, ptr %4, align 8, !tbaa !19
  store ptr %1, ptr %5, align 8, !tbaa !21
  store i64 %2, ptr %6, align 8, !tbaa !9
  call void @llvm.lifetime.start.p0(i64 4, ptr %7) #7
  store i32 0, ptr %7, align 4, !tbaa !13
  br label %13

13:                                               ; preds = %68, %3
  %14 = load i32, ptr %7, align 4, !tbaa !13
  %15 = sext i32 %14 to i64
  %16 = load i64, ptr %6, align 8, !tbaa !9
  %17 = icmp ult i64 %15, %16
  br i1 %17, label %19, label %18

18:                                               ; preds = %13
  store i32 2, ptr %8, align 4
  call void @llvm.lifetime.end.p0(i64 4, ptr %7) #7
  br label %71

19:                                               ; preds = %13
  call void @llvm.lifetime.start.p0(i64 1, ptr %9) #7
  store i8 0, ptr %9, align 1, !tbaa !23
  call void @llvm.lifetime.start.p0(i64 1, ptr %10) #7
  store i8 1, ptr %10, align 1, !tbaa !23
  call void @llvm.lifetime.start.p0(i64 4, ptr %11) #7
  %20 = load i32, ptr %7, align 4, !tbaa !13
  %21 = add nsw i32 %20, 8
  %22 = sext i32 %21 to i64
  %23 = load i64, ptr %6, align 8, !tbaa !9
  %24 = icmp ule i64 %22, %23
  br i1 %24, label %25, label %26

25:                                               ; preds = %19
  br label %31

26:                                               ; preds = %19
  %27 = load i64, ptr %6, align 8, !tbaa !9
  %28 = load i32, ptr %7, align 4, !tbaa !13
  %29 = sext i32 %28 to i64
  %30 = sub i64 %27, %29
  br label %31

31:                                               ; preds = %26, %25
  %32 = phi i64 [ 8, %25 ], [ %30, %26 ]
  %33 = trunc i64 %32 to i32
  store i32 %33, ptr %11, align 4, !tbaa !13
  call void @llvm.lifetime.start.p0(i64 4, ptr %12) #7
  store i32 0, ptr %12, align 4, !tbaa !13
  br label %34

34:                                               ; preds = %60, %31
  %35 = load i32, ptr %12, align 4, !tbaa !13
  %36 = load i32, ptr %11, align 4, !tbaa !13
  %37 = icmp slt i32 %35, %36
  br i1 %37, label %39, label %38

38:                                               ; preds = %34
  store i32 5, ptr %8, align 4
  call void @llvm.lifetime.end.p0(i64 4, ptr %12) #7
  br label %63

39:                                               ; preds = %34
  %40 = load ptr, ptr %4, align 8, !tbaa !19
  %41 = load i32, ptr %7, align 4, !tbaa !13
  %42 = load i32, ptr %12, align 4, !tbaa !13
  %43 = add nsw i32 %41, %42
  %44 = sext i32 %43 to i64
  %45 = getelementptr inbounds float, ptr %40, i64 %44
  %46 = load float, ptr %45, align 4, !tbaa !24
  %47 = fcmp oge float %46, 0.000000e+00
  br i1 %47, label %48, label %55

48:                                               ; preds = %39
  %49 = load i8, ptr %10, align 1, !tbaa !23
  %50 = zext i8 %49 to i32
  %51 = load i8, ptr %9, align 1, !tbaa !23
  %52 = zext i8 %51 to i32
  %53 = or i32 %52, %50
  %54 = trunc i32 %53 to i8
  store i8 %54, ptr %9, align 1, !tbaa !23
  br label %55

55:                                               ; preds = %48, %39
  %56 = load i8, ptr %10, align 1, !tbaa !23
  %57 = zext i8 %56 to i32
  %58 = shl i32 %57, 1
  %59 = trunc i32 %58 to i8
  store i8 %59, ptr %10, align 1, !tbaa !23
  br label %60

60:                                               ; preds = %55
  %61 = load i32, ptr %12, align 4, !tbaa !13
  %62 = add nsw i32 %61, 1
  store i32 %62, ptr %12, align 4, !tbaa !13
  br label %34, !llvm.loop !26

63:                                               ; preds = %38
  %64 = load i8, ptr %9, align 1, !tbaa !23
  %65 = load ptr, ptr %5, align 8, !tbaa !21
  store i8 %64, ptr %65, align 1, !tbaa !23
  %66 = load ptr, ptr %5, align 8, !tbaa !21
  %67 = getelementptr inbounds nuw i8, ptr %66, i32 1
  store ptr %67, ptr %5, align 8, !tbaa !21
  call void @llvm.lifetime.end.p0(i64 4, ptr %11) #7
  call void @llvm.lifetime.end.p0(i64 1, ptr %10) #7
  call void @llvm.lifetime.end.p0(i64 1, ptr %9) #7
  br label %68

68:                                               ; preds = %63
  %69 = load i32, ptr %7, align 4, !tbaa !13
  %70 = add nsw i32 %69, 8
  store i32 %70, ptr %7, align 4, !tbaa !13
  br label %13, !llvm.loop !27

71:                                               ; preds = %18
  ret void
}