; Function Attrs: mustprogress nofree norecurse nosync nounwind memory(argmem: readwrite) uwtable
define void @_ZN5faiss11fvec2bitvecEPKfPhm(ptr noalias noundef readonly captures(none) %0, ptr noalias noundef writeonly captures(none) %1, i64 noundef %2) local_unnamed_addr #0 {
  %.not32 = icmp eq i64 %2, 0
  br i1 %.not32, label %._crit_edge31, label %.lr.ph30

.lr.ph30:                                         ; preds = %3
  %4 = trunc i64 %2 to i32
  br label %5

._crit_edge31:                                    ; preds = %._crit_edge, %3
  ret void

5:                                                ; preds = %.lr.ph30, %._crit_edge
  %indvars.iv33 = phi i64 [ 0, %.lr.ph30 ], [ %indvars.iv.next34, %._crit_edge ]
  %.01828 = phi ptr [ %1, %.lr.ph30 ], [ %10, %._crit_edge ]
  %indvars.iv.next34 = add nuw nsw i64 %indvars.iv33, 8
  %.not = icmp ult i64 %2, %indvars.iv.next34
  %6 = trunc nuw nsw i64 %indvars.iv33 to i32
  %7 = sub i32 %4, %6
  %8 = select i1 %.not, i32 %7, i32 8
  %9 = icmp sgt i32 %8, 0
  br i1 %9, label %.lr.ph.preheader, label %._crit_edge

.lr.ph.preheader:                                 ; preds = %5
  %wide.trip.count = zext nneg i32 %8 to i64
  %invariant.gep = getelementptr inbounds nuw float, ptr %0, i64 %indvars.iv33
  br label %.lr.ph

._crit_edge:                                      ; preds = %.lr.ph, %5
  %.020.lcssa = phi i8 [ 0, %5 ], [ %.1, %.lr.ph ]
  store i8 %.020.lcssa, ptr %.01828, align 1, !tbaa !14
  %10 = getelementptr inbounds nuw i8, ptr %.01828, i64 1
  %11 = icmp ugt i64 %2, %indvars.iv.next34
  br i1 %11, label %5, label %._crit_edge31, !llvm.loop !15

.lr.ph:                                           ; preds = %.lr.ph.preheader, %.lr.ph
  %indvars.iv = phi i64 [ 0, %.lr.ph.preheader ], [ %indvars.iv.next, %.lr.ph ]
  %.01925 = phi i8 [ 1, %.lr.ph.preheader ], [ %15, %.lr.ph ]
  %.02024 = phi i8 [ 0, %.lr.ph.preheader ], [ %.1, %.lr.ph ]
  %gep = getelementptr inbounds nuw float, ptr %invariant.gep, i64 %indvars.iv
  %12 = load float, ptr %gep, align 4, !tbaa !16
  %13 = fcmp ult float %12, 0.000000e+00
  %14 = select i1 %13, i8 0, i8 %.01925
  %.1 = or i8 %14, %.02024
  %15 = shl i8 %.01925, 1
  %indvars.iv.next = add nuw nsw i64 %indvars.iv, 1
  %exitcond.not = icmp eq i64 %indvars.iv.next, %wide.trip.count
  br i1 %exitcond.not, label %._crit_edge, label %.lr.ph, !llvm.loop !18
}